target datalayout = "e-m:e-p270:32:32-p271:32:32-p272:64:64-i64:64-i128:128-f80:128-n8:16:32:64-S128"
target triple = "x86_64-pc-linux-gnu"

%struct._zend_llist = type { ptr, ptr, i64, i64, ptr, i8, ptr }
%struct._zend_stack = type { i32, i32, i32, ptr }
%struct._zend_array = type { %struct._zend_refcounted_h, %union.anon.4, i32, %union.anon.6, i32, i32, i32, i32, i64, ptr }
%struct._zend_refcounted_h = type { i32, %union.anon.3 }
%union.anon.3 = type { i32 }
%union.anon.4 = type { i32 }
%union.anon.6 = type { ptr }
%struct._zend_compiler_globals = type { %struct._zend_stack, ptr, ptr, i32, ptr, ptr, ptr, ptr, i8, i8, i8, i8, i8, %struct._zend_llist, ptr, i8, i8, i8, i8, ptr, i32, i32, %struct._zend_oparray_context, %struct._zend_file_context, ptr, %struct._zend_array, ptr, i64, i8, i8, i8, ptr, ptr, %struct._zend_stack, ptr, i32, ptr, ptr, i64, i64, ptr, ptr, ptr, ptr, i32, ptr, i32, %struct._zend_stack }
%struct._zend_oparray_context = type { ptr, ptr, i32, i32, i32, i32, i32, i32, i32, ptr, ptr, ptr, i32, i8 }
%struct._zend_file_context = type { %struct._zend_declarables, ptr, i8, i8, ptr, ptr, ptr, %struct._zend_array }
%struct._zend_declarables = type { i64 }
%struct.anon.7 = type { i8, [3 x i8], i32, ptr, ptr, ptr, i32, i32, ptr, ptr, ptr, ptr, i32, ptr }

@zend_observers_fcall_list = internal global %struct._zend_llist zeroinitializer, align 8
@zend_observer_fcall_op_array_extension = dso_local global i32 0, align 4
@zend_observer_fcall_internal_function_extension = dso_local global i32 0, align 4
@compiler_globals = external global %struct._zend_compiler_globals, align 8

; Function Attrs: nounwind uwtable
define internal zeroext i1 @zend_observer_remove_handler(ptr noundef %0, ptr noundef %1, ptr noundef %2) #0 {
  %4 = alloca i1, align 1
  %5 = alloca ptr, align 8
  %6 = alloca ptr, align 8
  %7 = alloca ptr, align 8
  %8 = alloca i64, align 8
  %9 = alloca ptr, align 8
  %10 = alloca ptr, align 8
  %11 = alloca i32, align 4
  store ptr %0, ptr %5, align 8, !tbaa !4
  store ptr %1, ptr %6, align 8, !tbaa !4
  store ptr %2, ptr %7, align 8, !tbaa !4
  call void @llvm.lifetime.start.p0(i64 8, ptr %8) #8
  %12 = load i64, ptr getelementptr inbounds nuw (%struct._zend_llist, ptr @zend_observers_fcall_list, i32 0, i32 2), align 8, !tbaa !10
  store i64 %12, ptr %8, align 8, !tbaa !36
  call void @llvm.lifetime.start.p0(i64 8, ptr %9) #8
  %13 = load ptr, ptr %5, align 8, !tbaa !4
  %14 = load i64, ptr %8, align 8, !tbaa !36
  %15 = getelementptr inbounds nuw ptr, ptr %13, i64 %14
  %16 = getelementptr inbounds ptr, ptr %15, i64 -1
  store ptr %16, ptr %9, align 8, !tbaa !4
  call void @llvm.lifetime.start.p0(i64 8, ptr %10) #8
  %17 = load ptr, ptr %5, align 8, !tbaa !4
  store ptr %17, ptr %10, align 8, !tbaa !4
  br label %18

18:                                               ; preds = %65, %3
  %19 = load ptr, ptr %10, align 8, !tbaa !4
  %20 = load ptr, ptr %9, align 8, !tbaa !4
  %21 = icmp ule ptr %19, %20
  br i1 %21, label %23, label %22

22:                                               ; preds = %18
  store i32 2, ptr %11, align 4
  br label %68

23:                                               ; preds = %18
  %24 = load ptr, ptr %10, align 8, !tbaa !4
  %25 = load ptr, ptr %24, align 8, !tbaa !4
  %26 = load ptr, ptr %6, align 8, !tbaa !4
  %27 = icmp eq ptr %25, %26
  br i1 %27, label %28, label %64

28:                                               ; preds = %23
  %29 = load i64, ptr %8, align 8, !tbaa !36
  %30 = icmp eq i64 %29, 1
  br i1 %30, label %40, label %31

31:                                               ; preds = %28
  %32 = load ptr, ptr %10, align 8, !tbaa !4
  %33 = load ptr, ptr %5, align 8, !tbaa !4
  %34 = icmp eq ptr %32, %33
  br i1 %34, label %35, label %43

35:                                               ; preds = %31
  %36 = load ptr, ptr %10, align 8, !tbaa !4
  %37 = getelementptr inbounds ptr, ptr %36, i64 1
  %38 = load ptr, ptr %37, align 8, !tbaa !4
  %39 = icmp eq ptr %38, null
  br i1 %39, label %40, label %43

40:                                               ; preds = %35, %28
  %41 = load ptr, ptr %10, align 8, !tbaa !4
  store ptr inttoptr (i64 2 to ptr), ptr %41, align 8, !tbaa !4
  %42 = load ptr, ptr %7, align 8, !tbaa !4
  store ptr null, ptr %42, align 8, !tbaa !4
  br label %63

43:                                               ; preds = %35, %31
  %44 = load ptr, ptr %10, align 8, !tbaa !4
  %45 = load ptr, ptr %9, align 8, !tbaa !4
  %46 = icmp ne ptr %44, %45
  br i1 %46, label %47, label %58

47:                                               ; preds = %43
  %48 = load ptr, ptr %10, align 8, !tbaa !4
  %49 = load ptr, ptr %10, align 8, !tbaa !4
  %50 = getelementptr inbounds ptr, ptr %49, i64 1
  %51 = load ptr, ptr %9, align 8, !tbaa !4
  %52 = load ptr, ptr %10, align 8, !tbaa !4
  %53 = ptrtoint ptr %51 to i64
  %54 = ptrtoint ptr %52 to i64
  %55 = sub i64 %53, %54
  %56 = sdiv exact i64 %55, 8
  %57 = mul i64 8, %56
  call void @llvm.memmove.p0.p0.i64(ptr align 8 %48, ptr align 8 %50, i64 %57, i1 false)
  br label %58

58:                                               ; preds = %47, %43
  %59 = load ptr, ptr %9, align 8, !tbaa !4
  store ptr null, ptr %59, align 8, !tbaa !4
  %60 = load ptr, ptr %10, align 8, !tbaa !4
  %61 = load ptr, ptr %60, align 8, !tbaa !4
  %62 = load ptr, ptr %7, align 8, !tbaa !4
  store ptr %61, ptr %62, align 8, !tbaa !4
  br label %63

63:                                               ; preds = %58, %40
  store i1 true, ptr %4, align 1
  store i32 1, ptr %11, align 4
  br label %68

64:                                               ; preds = %23
  br label %65

65:                                               ; preds = %64
  %66 = load ptr, ptr %10, align 8, !tbaa !4
  %67 = getelementptr inbounds nuw ptr, ptr %66, i32 1
  store ptr %67, ptr %10, align 8, !tbaa !4
  br label %18

68:                                               ; preds = %63, %22
  call void @llvm.lifetime.end.p0(i64 8, ptr %10) #8
  %69 = load i32, ptr %11, align 4
  switch i32 %69, label %71 [
    i32 2, label %70
  ]

70:                                               ; preds = %68
  store i1 false, ptr %4, align 1
  store i32 1, ptr %11, align 4
  br label %71

71:                                               ; preds = %70, %68
  call void @llvm.lifetime.end.p0(i64 8, ptr %9) #8
  call void @llvm.lifetime.end.p0(i64 8, ptr %8) #8
  %72 = load i1, ptr %4, align 1
  ret i1 %72
}

; Function Attrs: nounwind uwtable
define dso_local zeroext i1 @zend_observer_remove_begin_handler(ptr noundef %0, ptr noundef %1, ptr noundef %2) #0 {
  %4 = alloca i1, align 1
  %5 = alloca ptr, align 8
  %6 = alloca ptr, align 8
  %7 = alloca ptr, align 8
  %8 = alloca ptr, align 8
  %9 = alloca i64, align 8
  %10 = alloca i32, align 4
  store ptr %0, ptr %5, align 8, !tbaa !75
  store ptr %1, ptr %6, align 8, !tbaa !4
  store ptr %2, ptr %7, align 8, !tbaa !4
  call void @llvm.lifetime.start.p0(i64 8, ptr %8) #8
  %11 = load ptr, ptr %5, align 8, !tbaa !75
  %12 = getelementptr inbounds nuw %struct.anon.7, ptr %11, i32 0, i32 10
  %13 = load ptr, ptr %12, align 8, !tbaa !35
  %14 = ptrtoint ptr %13 to i64
  %15 = and i64 %14, 1
  %16 = icmp ne i64 %15, 0
  br i1 %16, label %17, label %25

17:                                               ; preds = %3
  %18 = load ptr, ptr getelementptr inbounds nuw (%struct._zend_compiler_globals, ptr @compiler_globals, i32 0, i32 37), align 8, !tbaa !76
  %19 = load ptr, ptr %5, align 8, !tbaa !75
  %20 = getelementptr inbounds nuw %struct.anon.7, ptr %19, i32 0, i32 10
  %21 = load ptr, ptr %20, align 8, !tbaa !35
  %22 = ptrtoint ptr %21 to i64
  %23 = getelementptr inbounds i8, ptr %18, i64 %22
  %24 = load ptr, ptr %23, align 8, !tbaa !4
  br label %29

25:                                               ; preds = %3
  %26 = load ptr, ptr %5, align 8, !tbaa !75
  %27 = getelementptr inbounds nuw %struct.anon.7, ptr %26, i32 0, i32 10
  %28 = load ptr, ptr %27, align 8, !tbaa !35
  br label %29

29:                                               ; preds = %25, %17
  %30 = phi ptr [ %24, %17 ], [ %28, %25 ]
  %31 = load ptr, ptr %5, align 8, !tbaa !75
  %32 = load i8, ptr %31, align 8, !tbaa !35
  %33 = zext i8 %32 to i32
  %34 = icmp ne i32 %33, 1
  br i1 %34, label %35, label %37

35:                                               ; preds = %29
  %36 = load i32, ptr @zend_observer_fcall_op_array_extension, align 4, !tbaa !8
  br label %39

37:                                               ; preds = %29
  %38 = load i32, ptr @zend_observer_fcall_internal_function_extension, align 4, !tbaa !8
  br label %39

39:                                               ; preds = %37, %35
  %40 = phi i32 [ %36, %35 ], [ %38, %37 ]
  %41 = sext i32 %40 to i64
  %42 = getelementptr inbounds ptr, ptr %30, i64 %41
  store ptr %42, ptr %8, align 8, !tbaa !4
  %43 = load ptr, ptr %8, align 8, !tbaa !4
  %44 = load ptr, ptr %6, align 8, !tbaa !4
  %45 = load ptr, ptr %7, align 8, !tbaa !4
  %46 = call zeroext i1 @zend_observer_remove_handler(ptr noundef %43, ptr noundef %44, ptr noundef %45)
  br i1 %46, label %47, label %62

47:                                               ; preds = %39
  %48 = load ptr, ptr %8, align 8, !tbaa !4
  %49 = load ptr, ptr %48, align 8, !tbaa !4
  %50 = icmp eq ptr %49, inttoptr (i64 2 to ptr)
  br i1 %50, label %51, label %61

51:                                               ; preds = %47
  call void @llvm.lifetime.start.p0(i64 8, ptr %9) #8
  %52 = load i64, ptr getelementptr inbounds nuw (%struct._zend_llist, ptr @zend_observers_fcall_list, i32 0, i32 2), align 8, !tbaa !10
  store i64 %52, ptr %9, align 8, !tbaa !36
  %53 = load ptr, ptr %8, align 8, !tbaa !4
  %54 = load i64, ptr %9, align 8, !tbaa !36
  %55 = getelementptr inbounds nuw ptr, ptr %53, i64 %54
  %56 = load ptr, ptr %55, align 8, !tbaa !4
  %57 = icmp eq ptr %56, inttoptr (i64 2 to ptr)
  br i1 %57, label %58, label %60

58:                                               ; preds = %51
  %59 = load ptr, ptr %8, align 8, !tbaa !4
  store ptr inttoptr (i64 3 to ptr), ptr %59, align 8, !tbaa !4
  br label %60

60:                                               ; preds = %58, %51
  call void @llvm.lifetime.end.p0(i64 8, ptr %9) #8
  br label %61

61:                                               ; preds = %60, %47
  store i1 true, ptr %4, align 1
  store i32 1, ptr %10, align 4
  br label %63

62:                                               ; preds = %39
  store i1 false, ptr %4, align 1
  store i32 1, ptr %10, align 4
  br label %63

63:                                               ; preds = %62, %61
  call void @llvm.lifetime.end.p0(i64 8, ptr %8) #8
  %64 = load i1, ptr %4, align 1
  ret i1 %64
}