; Function Attrs: nofree norecurse nosync nounwind memory(readwrite, inaccessiblemem: none) uwtable
define dso_local noundef zeroext i1 @zend_observer_remove_begin_handler(ptr noundef readonly captures(none) %0, ptr noundef readnone captures(address) %1, ptr noundef writeonly captures(none) %2) local_unnamed_addr #5 {
  %4 = getelementptr inbounds nuw i8, ptr %0, i64 56
  %5 = load ptr, ptr %4, align 8, !tbaa !34
  %6 = ptrtoint ptr %5 to i64
  %7 = and i64 %6, 1
  %.not = icmp eq i64 %7, 0
  br i1 %.not, label %12, label %8

8:                                                ; preds = %3
  %9 = load ptr, ptr getelementptr inbounds nuw (i8, ptr @compiler_globals, i64 512), align 8, !tbaa !68
  %10 = getelementptr inbounds i8, ptr %9, i64 %6
  %11 = load ptr, ptr %10, align 8, !tbaa !4
  br label %12

12:                                               ; preds = %3, %8
  %13 = phi ptr [ %11, %8 ], [ %5, %3 ]
  %14 = load i8, ptr %0, align 8, !tbaa !34
  %.not11 = icmp eq i8 %14, 1
  %15 = load i32, ptr @zend_observer_fcall_op_array_extension, align 4
  %16 = load i32, ptr @zend_observer_fcall_internal_function_extension, align 4
  %17 = select i1 %.not11, i32 %16, i32 %15
  %18 = sext i32 %17 to i64
  %19 = getelementptr inbounds ptr, ptr %13, i64 %18
  %20 = load i64, ptr getelementptr inbounds nuw (i8, ptr @zend_observers_fcall_list, i64 16), align 8, !tbaa !10
  %21 = getelementptr inbounds nuw ptr, ptr %19, i64 %20
  %22 = getelementptr inbounds i8, ptr %21, i64 -8
  %.not31.not.i = icmp ugt ptr %19, %22
  br i1 %.not31.not.i, label %zend_observer_remove_handler.exit.thread, label %.lr.ph.i

.lr.ph.i:                                         ; preds = %12, %42
  %.02432.i = phi ptr [ %43, %42 ], [ %19, %12 ]
  %23 = load ptr, ptr %.02432.i, align 8, !tbaa !4
  %24 = icmp eq ptr %23, %1
  br i1 %24, label %25, label %42

25:                                               ; preds = %.lr.ph.i
  %26 = icmp eq i64 %20, 1
  br i1 %26, label %33, label %27

27:                                               ; preds = %25
  %28 = icmp eq ptr %.02432.i, %19
  br i1 %28, label %29, label %34

29:                                               ; preds = %27
  %30 = getelementptr inbounds nuw i8, ptr %19, i64 8
  %31 = load ptr, ptr %30, align 8, !tbaa !4
  %32 = icmp eq ptr %31, null
  br i1 %32, label %33, label %34

33:                                               ; preds = %29, %25
  store ptr inttoptr (i64 2 to ptr), ptr %.02432.i, align 8, !tbaa !4
  br label %44

34:                                               ; preds = %29, %27
  %.not27.i = icmp eq ptr %.02432.i, %22
  br i1 %.not27.i, label %40, label %35

35:                                               ; preds = %34
  %36 = getelementptr inbounds nuw i8, ptr %.02432.i, i64 8
  %37 = ptrtoint ptr %22 to i64
  %38 = ptrtoint ptr %.02432.i to i64
  %39 = sub i64 %37, %38
  tail call void @llvm.memmove.p0.p0.i64(ptr nonnull align 8 %.02432.i, ptr nonnull align 8 %36, i64 %39, i1 false)
  br label %40

40:                                               ; preds = %35, %34
  store ptr null, ptr %22, align 8, !tbaa !4
  %41 = load ptr, ptr %.02432.i, align 8, !tbaa !4
  br label %44

42:                                               ; preds = %.lr.ph.i
  %43 = getelementptr inbounds nuw i8, ptr %.02432.i, i64 8
  %.not.not.i = icmp ugt ptr %43, %22
  br i1 %.not.not.i, label %zend_observer_remove_handler.exit.thread, label %.lr.ph.i

44:                                               ; preds = %40, %33
  %storemerge.i = phi ptr [ %41, %40 ], [ null, %33 ]
  store ptr %storemerge.i, ptr %2, align 8, !tbaa !4
  %45 = load ptr, ptr %19, align 8, !tbaa !4
  %46 = icmp eq ptr %45, inttoptr (i64 2 to ptr)
  br i1 %46, label %47, label %zend_observer_remove_handler.exit.thread

47:                                               ; preds = %44
  %48 = load i64, ptr getelementptr inbounds nuw (i8, ptr @zend_observers_fcall_list, i64 16), align 8, !tbaa !10
  %49 = getelementptr inbounds nuw ptr, ptr %19, i64 %48
  %50 = load ptr, ptr %49, align 8, !tbaa !4
  %51 = icmp eq ptr %50, inttoptr (i64 2 to ptr)
  br i1 %51, label %52, label %zend_observer_remove_handler.exit.thread

52:                                               ; preds = %47
  store ptr inttoptr (i64 3 to ptr), ptr %19, align 8, !tbaa !4
  br label %zend_observer_remove_handler.exit.thread

zend_observer_remove_handler.exit.thread:         ; preds = %42, %12, %44, %52, %47
  %.not29.i13 = phi i1 [ true, %44 ], [ true, %52 ], [ true, %47 ], [ false, %12 ], [ false, %42 ]
  ret i1 %.not29.i13
}